target datalayout = "e-m:e-p270:32:32-p271:32:32-p272:64:64-i64:64-i128:128-f80:128-n8:16:32:64-S128"
target triple = "x86_64-pc-linux-gnu"

%struct.AVPacket = type { ptr, i64, i64, ptr, i32, i32, i32, ptr, i32, i64, i64, ptr, ptr, %struct.AVRational }
%struct.AVRational = type { i32, i32 }
%struct.MpegTSContext = type { ptr, ptr, i32, i64, i32, i32, i32, i64, i64, i32, ptr, i64, i32, i32, i32, i32, i32, i32, i32, i32, i32, ptr, [8192 x i8], [8192 x ptr], i32, ptr, [32 x ptr] }
%struct.AVFormatContext = type { ptr, ptr, ptr, ptr, ptr, i32, i32, ptr, i32, ptr, i32, ptr, ptr, i64, i64, i64, i32, i32, i32, i64, i64, ptr, i32, i32, ptr, i32, i32, i32, i32, ptr, i64, i32, i32, %struct.AVIOInterruptCB, i32, i32, i32, i32, i64, i32, i32, i32, i32, i32, i32, i32, i32, i32, i32, i32, i32, i64, i32, i32, i32, i32, i32, ptr, ptr, ptr, ptr, i32, ptr, ptr, ptr, ptr, i32, ptr, ptr, i64, ptr, ptr, ptr, i64 }
%struct.AVIOInterruptCB = type { ptr, ptr }

; Function Attrs: nounwind uwtable
define internal i64 @mpegts_get_dts(ptr noundef %0, i32 noundef %1, ptr noundef %2, i64 noundef %3) #0 {
  %5 = alloca i64, align 8
  %6 = alloca ptr, align 8
  %7 = alloca i32, align 4
  %8 = alloca ptr, align 8
  %9 = alloca i64, align 8
  %10 = alloca ptr, align 8
  %11 = alloca ptr, align 8
  %12 = alloca i64, align 8
  %13 = alloca i32, align 4
  %14 = alloca i32, align 4
  %15 = alloca i32, align 4
  %16 = alloca i64, align 8
  store ptr %0, ptr %6, align 8, !tbaa !4
  store i32 %1, ptr %7, align 4, !tbaa !11
  store ptr %2, ptr %8, align 8, !tbaa !196
  store i64 %3, ptr %9, align 8, !tbaa !90
  call void @llvm.lifetime.start.p0(i64 8, ptr %10) #12
  %17 = load ptr, ptr %6, align 8, !tbaa !4
  %18 = getelementptr inbounds nuw %struct.AVFormatContext, ptr %17, i32 0, i32 3
  %19 = load ptr, ptr %18, align 8, !tbaa !181
  store ptr %19, ptr %10, align 8, !tbaa !20
  call void @llvm.lifetime.start.p0(i64 8, ptr %11) #12
  call void @llvm.lifetime.start.p0(i64 8, ptr %12) #12
  call void @llvm.lifetime.start.p0(i64 4, ptr %13) #12
  %20 = load ptr, ptr %10, align 8, !tbaa !20
  %21 = getelementptr inbounds nuw %struct.MpegTSContext, ptr %20, i32 0, i32 3
  %22 = load i64, ptr %21, align 8, !tbaa !169
  %23 = load ptr, ptr %10, align 8, !tbaa !20
  %24 = getelementptr inbounds nuw %struct.MpegTSContext, ptr %23, i32 0, i32 2
  %25 = load i32, ptr %24, align 8, !tbaa !118
  %26 = sext i32 %25 to i64
  %27 = srem i64 %22, %26
  %28 = trunc i64 %27 to i32
  store i32 %28, ptr %13, align 4, !tbaa !11
  %29 = load ptr, ptr %8, align 8, !tbaa !196
  %30 = load i64, ptr %29, align 8, !tbaa !90
  %31 = load ptr, ptr %10, align 8, !tbaa !20
  %32 = getelementptr inbounds nuw %struct.MpegTSContext, ptr %31, i32 0, i32 2
  %33 = load i32, ptr %32, align 8, !tbaa !118
  %34 = sext i32 %33 to i64
  %35 = add nsw i64 %30, %34
  %36 = sub nsw i64 %35, 1
  %37 = load i32, ptr %13, align 4, !tbaa !11
  %38 = sext i32 %37 to i64
  %39 = sub nsw i64 %36, %38
  %40 = load ptr, ptr %10, align 8, !tbaa !20
  %41 = getelementptr inbounds nuw %struct.MpegTSContext, ptr %40, i32 0, i32 2
  %42 = load i32, ptr %41, align 8, !tbaa !118
  %43 = sext i32 %42 to i64
  %44 = sdiv i64 %39, %43
  %45 = load ptr, ptr %10, align 8, !tbaa !20
  %46 = getelementptr inbounds nuw %struct.MpegTSContext, ptr %45, i32 0, i32 2
  %47 = load i32, ptr %46, align 8, !tbaa !118
  %48 = sext i32 %47 to i64
  %49 = mul nsw i64 %44, %48
  %50 = load i32, ptr %13, align 4, !tbaa !11
  %51 = sext i32 %50 to i64
  %52 = add nsw i64 %49, %51
  store i64 %52, ptr %12, align 8, !tbaa !90
  %53 = load ptr, ptr %6, align 8, !tbaa !4
  call void @ff_read_frame_flush(ptr noundef %53)
  %54 = load ptr, ptr %6, align 8, !tbaa !4
  %55 = getelementptr inbounds nuw %struct.AVFormatContext, ptr %54, i32 0, i32 4
  %56 = load ptr, ptr %55, align 8, !tbaa !182
  %57 = load i64, ptr %12, align 8, !tbaa !90
  %58 = call i64 @avio_seek(ptr noundef %56, i64 noundef %57, i32 noundef 0)
  %59 = icmp slt i64 %58, 0
  br i1 %59, label %60, label %61

60:                                               ; preds = %4
  store i64 -9223372036854775808, ptr %5, align 8
  store i32 1, ptr %14, align 4
  br label %140

61:                                               ; preds = %4
  %62 = call ptr @av_packet_alloc()
  store ptr %62, ptr %11, align 8, !tbaa !164
  %63 = load ptr, ptr %11, align 8, !tbaa !164
  %64 = icmp ne ptr %63, null
  br i1 %64, label %66, label %65

65:                                               ; preds = %61
  store i64 -9223372036854775808, ptr %5, align 8
  store i32 1, ptr %14, align 4
  br label %140

66:                                               ; preds = %61
  br label %67

67:                                               ; preds = %138, %66
  %68 = load i64, ptr %12, align 8, !tbaa !90
  %69 = load i64, ptr %9, align 8, !tbaa !90
  %70 = icmp slt i64 %68, %69
  br i1 %70, label %71, label %139

71:                                               ; preds = %67
  call void @llvm.lifetime.start.p0(i64 4, ptr %15) #12
  %72 = load ptr, ptr %6, align 8, !tbaa !4
  %73 = load ptr, ptr %11, align 8, !tbaa !164
  %74 = call i32 @av_read_frame(ptr noundef %72, ptr noundef %73)
  store i32 %74, ptr %15, align 4, !tbaa !11
  %75 = load i32, ptr %15, align 4, !tbaa !11
  %76 = icmp slt i32 %75, 0
  br i1 %76, label %77, label %78

77:                                               ; preds = %71
  call void @av_packet_free(ptr noundef %11)
  store i64 -9223372036854775808, ptr %5, align 8
  store i32 1, ptr %14, align 4
  br label %136

78:                                               ; preds = %71
  %79 = load ptr, ptr %11, align 8, !tbaa !164
  %80 = getelementptr inbounds nuw %struct.AVPacket, ptr %79, i32 0, i32 2
  %81 = load i64, ptr %80, align 8, !tbaa !198
  %82 = icmp ne i64 %81, -9223372036854775808
  br i1 %82, label %83, label %131

83:                                               ; preds = %78
  %84 = load ptr, ptr %11, align 8, !tbaa !164
  %85 = getelementptr inbounds nuw %struct.AVPacket, ptr %84, i32 0, i32 10
  %86 = load i64, ptr %85, align 8, !tbaa !199
  %87 = icmp sge i64 %86, 0
  br i1 %87, label %88, label %131

88:                                               ; preds = %83
  %89 = load ptr, ptr %6, align 8, !tbaa !4
  %90 = load ptr, ptr %11, align 8, !tbaa !164
  %91 = getelementptr inbounds nuw %struct.AVPacket, ptr %90, i32 0, i32 5
  %92 = load i32, ptr %91, align 4, !tbaa !162
  call void @ff_reduce_index(ptr noundef %89, i32 noundef %92)
  %93 = load ptr, ptr %6, align 8, !tbaa !4
  %94 = getelementptr inbounds nuw %struct.AVFormatContext, ptr %93, i32 0, i32 7
  %95 = load ptr, ptr %94, align 8, !tbaa !200
  %96 = load ptr, ptr %11, align 8, !tbaa !164
  %97 = getelementptr inbounds nuw %struct.AVPacket, ptr %96, i32 0, i32 5
  %98 = load i32, ptr %97, align 4, !tbaa !162
  %99 = sext i32 %98 to i64
  %100 = getelementptr inbounds ptr, ptr %95, i64 %99
  %101 = load ptr, ptr %100, align 8, !tbaa !9
  %102 = load ptr, ptr %11, align 8, !tbaa !164
  %103 = getelementptr inbounds nuw %struct.AVPacket, ptr %102, i32 0, i32 10
  %104 = load i64, ptr %103, align 8, !tbaa !199
  %105 = load ptr, ptr %11, align 8, !tbaa !164
  %106 = getelementptr inbounds nuw %struct.AVPacket, ptr %105, i32 0, i32 2
  %107 = load i64, ptr %106, align 8, !tbaa !198
  %108 = call i32 @av_add_index_entry(ptr noundef %101, i64 noundef %104, i64 noundef %107, i32 noundef 0, i32 noundef 0, i32 noundef 1)
  %109 = load ptr, ptr %11, align 8, !tbaa !164
  %110 = getelementptr inbounds nuw %struct.AVPacket, ptr %109, i32 0, i32 5
  %111 = load i32, ptr %110, align 4, !tbaa !162
  %112 = load i32, ptr %7, align 4, !tbaa !11
  %113 = icmp eq i32 %111, %112
  br i1 %113, label %114, label %130

114:                                              ; preds = %88
  %115 = load ptr, ptr %11, align 8, !tbaa !164
  %116 = getelementptr inbounds nuw %struct.AVPacket, ptr %115, i32 0, i32 10
  %117 = load i64, ptr %116, align 8, !tbaa !199
  %118 = load ptr, ptr %8, align 8, !tbaa !196
  %119 = load i64, ptr %118, align 8, !tbaa !90
  %120 = icmp sge i64 %117, %119
  br i1 %120, label %121, label %130

121:                                              ; preds = %114
  call void @llvm.lifetime.start.p0(i64 8, ptr %16) #12
  %122 = load ptr, ptr %11, align 8, !tbaa !164
  %123 = getelementptr inbounds nuw %struct.AVPacket, ptr %122, i32 0, i32 2
  %124 = load i64, ptr %123, align 8, !tbaa !198
  store i64 %124, ptr %16, align 8, !tbaa !90
  %125 = load ptr, ptr %11, align 8, !tbaa !164
  %126 = getelementptr inbounds nuw %struct.AVPacket, ptr %125, i32 0, i32 10
  %127 = load i64, ptr %126, align 8, !tbaa !199
  %128 = load ptr, ptr %8, align 8, !tbaa !196
  store i64 %127, ptr %128, align 8, !tbaa !90
  call void @av_packet_free(ptr noundef %11)
  %129 = load i64, ptr %16, align 8, !tbaa !90
  store i64 %129, ptr %5, align 8
  store i32 1, ptr %14, align 4
  call void @llvm.lifetime.end.p0(i64 8, ptr %16) #12
  br label %136

130:                                              ; preds = %114, %88
  br label %131

131:                                              ; preds = %130, %83, %78
  %132 = load ptr, ptr %11, align 8, !tbaa !164
  %133 = getelementptr inbounds nuw %struct.AVPacket, ptr %132, i32 0, i32 10
  %134 = load i64, ptr %133, align 8, !tbaa !199
  store i64 %134, ptr %12, align 8, !tbaa !90
  %135 = load ptr, ptr %11, align 8, !tbaa !164
  call void @av_packet_unref(ptr noundef %135)
  store i32 0, ptr %14, align 4
  br label %136

136:                                              ; preds = %131, %121, %77
  call void @llvm.lifetime.end.p0(i64 4, ptr %15) #12
  %137 = load i32, ptr %14, align 4
  switch i32 %137, label %140 [
    i32 0, label %138
  ]

138:                                              ; preds = %136
  br label %67, !llvm.loop !201

139:                                              ; preds = %67
  call void @av_packet_free(ptr noundef %11)
  store i64 -9223372036854775808, ptr %5, align 8
  store i32 1, ptr %14, align 4
  br label %140

140:                                              ; preds = %139, %136, %65, %60
  call void @llvm.lifetime.end.p0(i64 4, ptr %13) #12
  call void @llvm.lifetime.end.p0(i64 8, ptr %12) #12
  call void @llvm.lifetime.end.p0(i64 8, ptr %11) #12
  call void @llvm.lifetime.end.p0(i64 8, ptr %10) #12
  %141 = load i64, ptr %5, align 8
  ret i64 %141
}