; Function Attrs: nounwind uwtable
define internal i64 @mpegts_get_dts(ptr noundef %0, i32 noundef %1, ptr noundef captures(none) %2, i64 noundef %3) #0 {
  %5 = alloca ptr, align 8
  %6 = getelementptr inbounds nuw i8, ptr %0, i64 24
  %7 = load ptr, ptr %6, align 8, !tbaa !188
  call void @llvm.lifetime.start.p0(i64 8, ptr nonnull %5) #12
  %8 = getelementptr inbounds nuw i8, ptr %7, i64 24
  %9 = load i64, ptr %8, align 8, !tbaa !178
  %10 = getelementptr inbounds nuw i8, ptr %7, i64 16
  %11 = load i32, ptr %10, align 8, !tbaa !111
  %12 = sext i32 %11 to i64
  %13 = srem i64 %9, %12
  %14 = load i64, ptr %2, align 8, !tbaa !90
  %15 = xor i64 %13, -1
  %16 = add nsw i64 %15, %12
  %17 = add i64 %16, %14
  %.fr = freeze i64 %17
  %18 = srem i64 %.fr, %12
  %19 = sub nsw i64 %.fr, %18
  %20 = add nsw i64 %19, %13
  tail call void @ff_read_frame_flush(ptr noundef %0) #12
  %21 = getelementptr inbounds nuw i8, ptr %0, i64 32
  %22 = load ptr, ptr %21, align 8, !tbaa !189
  %23 = tail call i64 @avio_seek(ptr noundef %22, i64 noundef %20, i32 noundef 0) #12
  %24 = icmp slt i64 %23, 0
  br i1 %24, label %.thread, label %25

25:                                               ; preds = %4
  %26 = tail call ptr @av_packet_alloc() #12
  store ptr %26, ptr %5, align 8, !tbaa !201
  %.not = icmp eq ptr %26, null
  br i1 %.not, label %.thread, label %.preheader

.preheader:                                       ; preds = %25
  %27 = icmp slt i64 %20, %3
  br i1 %27, label %.lr.ph, label %.thread.sink.split

.lr.ph:                                           ; preds = %.preheader
  %28 = getelementptr inbounds nuw i8, ptr %26, i64 16
  %29 = getelementptr inbounds nuw i8, ptr %26, i64 72
  %30 = getelementptr inbounds nuw i8, ptr %26, i64 36
  %31 = getelementptr inbounds nuw i8, ptr %0, i64 48
  br label %32

32:                                               ; preds = %.lr.ph, %54
  %33 = tail call i32 @av_read_frame(ptr noundef %0, ptr noundef nonnull %26) #12
  %34 = icmp slt i32 %33, 0
  br i1 %34, label %.thread.sink.split, label %35

35:                                               ; preds = %32
  %36 = load i64, ptr %28, align 8, !tbaa !202
  %.not27 = icmp ne i64 %36, -9223372036854775808
  %.pre = load i64, ptr %29, align 8, !tbaa !203
  %37 = icmp sgt i64 %.pre, -1
  %or.cond = select i1 %.not27, i1 %37, i1 false
  br i1 %or.cond, label %38, label %54

38:                                               ; preds = %35
  %39 = load i32, ptr %30, align 4, !tbaa !159
  tail call void @ff_reduce_index(ptr noundef %0, i32 noundef %39) #12
  %40 = load ptr, ptr %31, align 8, !tbaa !204
  %41 = load i32, ptr %30, align 4, !tbaa !159
  %42 = sext i32 %41 to i64
  %43 = getelementptr inbounds ptr, ptr %40, i64 %42
  %44 = load ptr, ptr %43, align 8, !tbaa !205
  %45 = load i64, ptr %29, align 8, !tbaa !203
  %46 = load i64, ptr %28, align 8, !tbaa !202
  %47 = tail call i32 @av_add_index_entry(ptr noundef %44, i64 noundef %45, i64 noundef %46, i32 noundef 0, i32 noundef 0, i32 noundef 1) #12
  %48 = load i32, ptr %30, align 4, !tbaa !159
  %49 = icmp eq i32 %48, %1
  %.pre33 = load i64, ptr %29, align 8, !tbaa !203
  br i1 %49, label %50, label %54

50:                                               ; preds = %38
  %51 = load i64, ptr %2, align 8, !tbaa !90
  %.not28 = icmp slt i64 %.pre33, %51
  br i1 %.not28, label %54, label %52

52:                                               ; preds = %50
  %53 = load i64, ptr %28, align 8, !tbaa !202
  store i64 %.pre33, ptr %2, align 8, !tbaa !90
  br label %.thread.sink.split

54:                                               ; preds = %35, %50, %38
  %55 = phi i64 [ %.pre, %35 ], [ %.pre33, %50 ], [ %.pre33, %38 ]
  tail call void @av_packet_unref(ptr noundef nonnull %26) #12
  %56 = icmp slt i64 %55, %3
  br i1 %56, label %32, label %.thread.sink.split, !llvm.loop !206

.thread.sink.split:                               ; preds = %54, %32, %.preheader, %52
  %.0.ph = phi i64 [ %53, %52 ], [ -9223372036854775808, %.preheader ], [ -9223372036854775808, %32 ], [ -9223372036854775808, %54 ]
  call void @av_packet_free(ptr noundef nonnull %5) #12
  br label %.thread

.thread:                                          ; preds = %.thread.sink.split, %25, %4
  %.0 = phi i64 [ -9223372036854775808, %4 ], [ -9223372036854775808, %25 ], [ %.0.ph, %.thread.sink.split ]
  call void @llvm.lifetime.end.p0(i64 8, ptr nonnull %5) #12
  ret i64 %.0
}